; ModuleID = '16/238.c'
source_filename = "16/238.c"
target datalayout = "e-m:e-p270:32:32-p271:32:32-p272:64:64-i64:64-f80:128-n8:16:32:64-S128"
target triple = "x86_64-pc-linux-gnu"

@.str = private unnamed_addr constant [3 x i8] c"%d\00", align 1
@.str.1 = private unnamed_addr constant [4 x i8] c"0%d\00", align 1
@.str.2 = private unnamed_addr constant [5 x i8] c"00%d\00", align 1
@.str.3 = private unnamed_addr constant [6 x i8] c"000%d\00", align 1
@.str.4 = private unnamed_addr constant [7 x i8] c"0000%d\00", align 1

; Function Attrs: noinline nounwind uwtable
define dso_local i32 @main() #0 {
  %1 = alloca i32, align 4
  %2 = alloca i32, align 4
  %3 = alloca i32, align 4
  %4 = alloca i32, align 4
  %5 = alloca i32, align 4
  %6 = alloca i32, align 4
  %7 = alloca i32, align 4
  %8 = alloca i32, align 4
  store i32 0, i32* %1, align 4
  %9 = call i32 (i8*, ...) @__isoc99_scanf(i8* getelementptr inbounds ([3 x i8], [3 x i8]* @.str, i64 0, i64 0), i32* %2)
  %10 = load i32, i32* %2, align 4
  %11 = sdiv i32 %10, 10000
  store i32 %11, i32* %4, align 4
  %12 = load i32, i32* %2, align 4
  %13 = srem i32 %12, 10000
  store i32 %13, i32* %2, align 4
  %14 = load i32, i32* %2, align 4
  %15 = sdiv i32 %14, 1000
  store i32 %15, i32* %5, align 4
  %16 = load i32, i32* %2, align 4
  %17 = srem i32 %16, 1000
  store i32 %17, i32* %2, align 4
  %18 = load i32, i32* %2, align 4
  %19 = sdiv i32 %18, 100
  store i32 %19, i32* %6, align 4
  %20 = load i32, i32* %2, align 4
  %21 = srem i32 %20, 100
  store i32 %21, i32* %2, align 4
  %22 = load i32, i32* %2, align 4
  %23 = sdiv i32 %22, 10
  store i32 %23, i32* %7, align 4
  %24 = load i32, i32* %2, align 4
  %25 = srem i32 %24, 10
  store i32 %25, i32* %2, align 4
  %26 = load i32, i32* %2, align 4
  store i32 %26, i32* %8, align 4
  %27 = load i32, i32* %4, align 4
  %28 = icmp eq i32 %27, 0
  br i1 %28, label %29, label %117

29:                                               ; preds = %0
  %30 = load i32, i32* %5, align 4
  %31 = icmp eq i32 %30, 0
  br i1 %31, label %32, label %82

32:                                               ; preds = %29
  %33 = load i32, i32* %6, align 4
  %34 = icmp eq i32 %33, 0
  br i1 %34, label %35, label %57

35:                                               ; preds = %32
  %36 = load i32, i32* %7, align 4
  %37 = icmp eq i32 %36, 0
  br i1 %37, label %38, label %42

38:                                               ; preds = %35
  %39 = load i32, i32* %8, align 4
  store i32 %39, i32* %3, align 4
  %40 = load i32, i32* %3, align 4
  %41 = call i32 (i8*, ...) @printf(i8* getelementptr inbounds ([3 x i8], [3 x i8]* @.str, i64 0, i64 0), i32 %40)
  br label %56

42:                                               ; preds = %35
  %43 = load i32, i32* %8, align 4
  %44 = mul nsw i32 10, %43
  %45 = load i32, i32* %7, align 4
  %46 = add nsw i32 %44, %45
  store i32 %46, i32* %3, align 4
  %47 = load i32, i32* %8, align 4
  %48 = icmp eq i32 %47, 0
  br i1 %48, label %49, label %52

49:                                               ; preds = %42
  %50 = load i32, i32* %3, align 4
  %51 = call i32 (i8*, ...) @printf(i8* getelementptr inbounds ([4 x i8], [4 x i8]* @.str.1, i64 0, i64 0), i32 %50)
  br label %55

52:                                               ; preds = %42
  %53 = load i32, i32* %3, align 4
  %54 = call i32 (i8*, ...) @printf(i8* getelementptr inbounds ([3 x i8], [3 x i8]* @.str, i64 0, i64 0), i32 %53)
  br label %55

55:                                               ; preds = %52, %49
  br label %56

56:                                               ; preds = %55, %38
  br label %81

57:                                               ; preds = %32
  %58 = load i32, i32* %8, align 4
  %59 = mul nsw i32 100, %58
  %60 = load i32, i32* %7, align 4
  %61 = mul nsw i32 10, %60
  %62 = add nsw i32 %59, %61
  %63 = load i32, i32* %6, align 4
  %64 = add nsw i32 %62, %63
  store i32 %64, i32* %3, align 4
  %65 = load i32, i32* %8, align 4
  %66 = icmp eq i32 %65, 0
  br i1 %66, label %67, label %77

67:                                               ; preds = %57
  %68 = load i32, i32* %7, align 4
  %69 = icmp eq i32 %68, 0
  br i1 %69, label %70, label %73

70:                                               ; preds = %67
  %71 = load i32, i32* %3, align 4
  %72 = call i32 (i8*, ...) @printf(i8* getelementptr inbounds ([5 x i8], [5 x i8]* @.str.2, i64 0, i64 0), i32 %71)
  br label %76

73:                                               ; preds = %67
  %74 = load i32, i32* %3, align 4
  %75 = call i32 (i8*, ...) @printf(i8* getelementptr inbounds ([4 x i8], [4 x i8]* @.str.1, i64 0, i64 0), i32 %74)
  br label %76

76:                                               ; preds = %73, %70
  br label %80

77:                                               ; preds = %57
  %78 = load i32, i32* %3, align 4
  %79 = call i32 (i8*, ...) @printf(i8* getelementptr inbounds ([3 x i8], [3 x i8]* @.str, i64 0, i64 0), i32 %78)
  br label %80

80:                                               ; preds = %77, %76
  br label %81

81:                                               ; preds = %80, %56
  br label %116

82:                                               ; preds = %29
  %83 = load i32, i32* %8, align 4
  %84 = mul nsw i32 1000, %83
  %85 = load i32, i32* %7, align 4
  %86 = mul nsw i32 100, %85
  %87 = add nsw i32 %84, %86
  %88 = load i32, i32* %6, align 4
  %89 = mul nsw i32 10, %88
  %90 = add nsw i32 %87, %89
  %91 = load i32, i32* %5, align 4
  %92 = add nsw i32 %90, %91
  store i32 %92, i32* %3, align 4
  %93 = load i32, i32* %8, align 4
  %94 = icmp eq i32 %93, 0
  br i1 %94, label %95, label %112

95:                                               ; preds = %82
  %96 = load i32, i32* %7, align 4
  %97 = icmp eq i32 %96, 0
  br i1 %97, label %98, label %108

98:                                               ; preds = %95
  %99 = load i32, i32* %6, align 4
  %100 = icmp eq i32 %99, 0
  br i1 %100, label %101, label %104

101:                                              ; preds = %98
  %102 = load i32, i32* %3, align 4
  %103 = call i32 (i8*, ...) @printf(i8* getelementptr inbounds ([6 x i8], [6 x i8]* @.str.3, i64 0, i64 0), i32 %102)
  br label %107

104:                                              ; preds = %98
  %105 = load i32, i32* %3, align 4
  %106 = call i32 (i8*, ...) @printf(i8* getelementptr inbounds ([5 x i8], [5 x i8]* @.str.2, i64 0, i64 0), i32 %105)
  br label %107

107:                                              ; preds = %104, %101
  br label %111

108:                                              ; preds = %95
  %109 = load i32, i32* %3, align 4
  %110 = call i32 (i8*, ...) @printf(i8* getelementptr inbounds ([4 x i8], [4 x i8]* @.str.1, i64 0, i64 0), i32 %109)
  br label %111

111:                                              ; preds = %108, %107
  br label %115

112:                                              ; preds = %82
  %113 = load i32, i32* %3, align 4
  %114 = call i32 (i8*, ...) @printf(i8* getelementptr inbounds ([3 x i8], [3 x i8]* @.str, i64 0, i64 0), i32 %113)
  br label %115

115:                                              ; preds = %112, %111
  br label %116

116:                                              ; preds = %115, %81
  br label %161

117:                                              ; preds = %0
  %118 = load i32, i32* %8, align 4
  %119 = mul nsw i32 10000, %118
  %120 = load i32, i32* %7, align 4
  %121 = mul nsw i32 1000, %120
  %122 = add nsw i32 %119, %121
  %123 = load i32, i32* %6, align 4
  %124 = mul nsw i32 100, %123
  %125 = add nsw i32 %122, %124
  %126 = load i32, i32* %5, align 4
  %127 = mul nsw i32 10, %126
  %128 = add nsw i32 %125, %127
  %129 = load i32, i32* %4, align 4
  %130 = add nsw i32 %128, %129
  store i32 %130, i32* %3, align 4
  %131 = load i32, i32* %8, align 4
  %132 = icmp eq i32 %131, 0
  br i1 %132, label %133, label %157

133:                                              ; preds = %117
  %134 = load i32, i32* %7, align 4
  %135 = icmp eq i32 %134, 0
  br i1 %135, label %136, label %153

136:                                              ; preds = %133
  %137 = load i32, i32* %6, align 4
  %138 = icmp eq i32 %137, 0
  br i1 %138, label %139, label %149

139:                                              ; preds = %136
  %140 = load i32, i32* %5, align 4
  %141 = icmp eq i32 %140, 0
  br i1 %141, label %142, label %145

142:                                              ; preds = %139
  %143 = load i32, i32* %3, align 4
  %144 = call i32 (i8*, ...) @printf(i8* getelementptr inbounds ([7 x i8], [7 x i8]* @.str.4, i64 0, i64 0), i32 %143)
  br label %148

145:                                              ; preds = %139
  %146 = load i32, i32* %3, align 4
  %147 = call i32 (i8*, ...) @printf(i8* getelementptr inbounds ([6 x i8], [6 x i8]* @.str.3, i64 0, i64 0), i32 %146)
  br label %148

148:                                              ; preds = %145, %142
  br label %152

149:                                              ; preds = %136
  %150 = load i32, i32* %3, align 4
  %151 = call i32 (i8*, ...) @printf(i8* getelementptr inbounds ([5 x i8], [5 x i8]* @.str.2, i64 0, i64 0), i32 %150)
  br label %152

152:                                              ; preds = %149, %148
  br label %156

153:                                              ; preds = %133
  %154 = load i32, i32* %3, align 4
  %155 = call i32 (i8*, ...) @printf(i8* getelementptr inbounds ([4 x i8], [4 x i8]* @.str.1, i64 0, i64 0), i32 %154)
  br label %156

156:                                              ; preds = %153, %152
  br label %160

157:                                              ; preds = %117
  %158 = load i32, i32* %3, align 4
  %159 = call i32 (i8*, ...) @printf(i8* getelementptr inbounds ([3 x i8], [3 x i8]* @.str, i64 0, i64 0), i32 %158)
  br label %160

160:                                              ; preds = %157, %156
  br label %161

161:                                              ; preds = %160, %116
  ret i32 0
}

declare dso_local i32 @__isoc99_scanf(i8*, ...) #1

declare dso_local i32 @printf(i8*, ...) #1


!llvm.module.flags = !{!0}
!llvm.ident = !{!1}

!0 = !{i32 1, !"wchar_size", i32 4}
!1 = !{!"clang version 10.0.0-4ubuntu1 "}
